; Function Attrs: uwtable
define hidden void @_ZThn48_N5array6solver16apply_sort_cnstrEPN3euf5enodeEP4sort(ptr noundef %0, ptr noundef %1, ptr readnone captures(none) %2) unnamed_addr #5 align 2 {
  %4 = getelementptr inbounds i8, ptr %0, i64 -48
  %5 = getelementptr inbounds i8, ptr %0, i64 -36
  %6 = load i32, ptr %5, align 4, !tbaa !31
  %7 = getelementptr inbounds nuw i8, ptr %1, i64 88
  %8 = load i32, ptr %7, align 8
  %9 = icmp ugt i32 %8, -257
  br i1 %9, label %_ZNK3euf5enode10get_th_varEi.exit.thread.i.i, label %.preheader.i.i.i.preheader.i

.preheader.i.i.i.preheader.i:                     ; preds = %3
  %10 = shl i32 %8, 24
  %11 = ashr exact i32 %10, 24
  %12 = icmp eq i32 %6, %11
  br i1 %12, label %_ZN5array6solver16apply_sort_cnstrEPN3euf5enodeEP4sort.exit, label %.lr.ph.i

.preheader.i.ithread-pre-split.i.i:               ; preds = %.lr.ph.i
  %.pr.i.i = load i32, ptr %17, align 8
  %13 = shl i32 %.pr.i.i, 24
  %14 = ashr exact i32 %13, 24
  %15 = icmp eq i32 %6, %14
  br i1 %15, label %_ZNK3euf5enode10get_th_varEi.exit.i.i, label %.lr.ph.i

.lr.ph.i:                                         ; preds = %.preheader.i.i.i.preheader.i, %.preheader.i.ithread-pre-split.i.i
  %.0.i.i.i3.i = phi ptr [ %17, %.preheader.i.ithread-pre-split.i.i ], [ %7, %.preheader.i.i.i.preheader.i ]
  %16 = getelementptr inbounds nuw i8, ptr %.0.i.i.i3.i, i64 8
  %17 = load ptr, ptr %16, align 8, !tbaa !51
  %.not.i.i.i.i = icmp eq ptr %17, null
  br i1 %.not.i.i.i.i, label %_ZNK3euf5enode10get_th_varEi.exit.thread.i.i, label %.preheader.i.ithread-pre-split.i.i, !llvm.loop !54

_ZNK3euf5enode10get_th_varEi.exit.i.i:            ; preds = %.preheader.i.ithread-pre-split.i.i
  %18 = icmp ugt i32 %.pr.i.i, -257
  br i1 %18, label %_ZNK3euf5enode10get_th_varEi.exit.thread.i.i, label %_ZN5array6solver16apply_sort_cnstrEPN3euf5enodeEP4sort.exit

_ZNK3euf5enode10get_th_varEi.exit.thread.i.i:     ; preds = %.lr.ph.i, %_ZNK3euf5enode10get_th_varEi.exit.i.i, %3
  %19 = load ptr, ptr %4, align 8, !tbaa !56
  %20 = getelementptr inbounds nuw i8, ptr %19, i64 528
  %21 = load ptr, ptr %20, align 8
  %22 = tail call noundef i32 %21(ptr noundef nonnull align 8 dereferenceable(536) %4, ptr noundef nonnull %1)
  %23 = load ptr, ptr %1, align 8, !tbaa !58
  %24 = getelementptr inbounds nuw i8, ptr %23, i64 4
  %25 = load i32, ptr %24, align 4
  %26 = and i32 %25, 65535
  %27 = icmp eq i32 %26, 2
  br i1 %27, label %_Z9is_lambdaPK3ast.exit.i.i, label %_ZN5array6solver16apply_sort_cnstrEPN3euf5enodeEP4sort.exit

_Z9is_lambdaPK3ast.exit.i.i:                      ; preds = %_ZNK3euf5enode10get_th_varEi.exit.thread.i.i
  %28 = getelementptr inbounds nuw i8, ptr %23, i64 16
  %29 = load i32, ptr %28, align 8, !tbaa !68
  %30 = icmp eq i32 %29, 2
  br i1 %30, label %31, label %_ZN5array6solver16apply_sort_cnstrEPN3euf5enodeEP4sort.exit

31:                                               ; preds = %_Z9is_lambdaPK3ast.exit.i.i
  tail call void @_ZN5array6solver21internalize_lambda_ehEPN3euf5enodeE(ptr noundef nonnull align 8 dereferenceable(536) %4, ptr noundef nonnull %1)
  br label %_ZN5array6solver16apply_sort_cnstrEPN3euf5enodeEP4sort.exit

_ZN5array6solver16apply_sort_cnstrEPN3euf5enodeEP4sort.exit: ; preds = %.preheader.i.i.i.preheader.i, %_ZNK3euf5enode10get_th_varEi.exit.i.i, %_ZNK3euf5enode10get_th_varEi.exit.thread.i.i, %_Z9is_lambdaPK3ast.exit.i.i, %31
  ret void
}